Archive member included because of file (symbol)

c:/saturn/sbl6/segalib/lib/sega_int.a(int.o)
                              vblank.o (INT_SetScuFunc)
c:/saturn/sbl6/segalib/lib/sega_int.a(int_trmp.o)
                              c:/saturn/sbl6/segalib/lib/sega_int.a(int.o) (__interrupt_handler0)
c:/saturn/sbl6/segalib/lib/sega_spr.a(spr_2c.o)
                              sprite.o (SPR_2Initial)
c:/saturn/sbl6/segalib/lib/sega_spr.a(spr_slv.o)
                              c:/saturn/sbl6/segalib/lib/sega_spr.a(spr_2c.o) (SPR_InitSlaveSH)
c:/saturn/sbl6/segalib/lib/sega_spr.a(spr_1c.o)
                              c:/saturn/sbl6/segalib/lib/sega_spr.a(spr_2c.o) (SPR_Initial)
c:/saturn/sbl6/segalib/lib/sega_spr.a(spr_2a.o)
                              c:/saturn/sbl6/segalib/lib/sega_spr.a(spr_2c.o) (SPR_2SetDrawPrty)
c:/saturn/sbl6/segalib/lib/sega_scl.a(scl_vblv.o)
                              c:/saturn/sbl6/segalib/lib/sega_spr.a(spr_1c.o) (SpFrameChgMode)
c:/saturn/sbl6/segalib/lib/sega_scl.a(scl_pr12.o)
                              game.o (SCL_SetColOffset)
c:/saturn/sbl6/segalib/lib/sega_scl.a(scl_pr07.o)
                              game.o (SCL_SetPriority)
c:/saturn/sbl6/segalib/lib/sega_scl.a(scl_pr02.o)
                              game.o (SCL_SetColRam)
c:/saturn/sbl6/segalib/lib/sega_scl.a(scl_pr11.o)
                              game.o (SCL_SetAutoColOffset)
c:/saturn/sbl6/segalib/lib/sega_scl.a(scl_pri.o)
                              c:/saturn/sbl6/segalib/lib/sega_scl.a(scl_pr11.o) (SclAutoVeFlag)
c:/saturn/sbl6/segalib/lib/sega_scl.a(scl_pr10.o)
                              intro.o (SCL_SetAutoColMix)
c:/saturn/sbl6/segalib/lib/sega_scl.a(scl_fu05.o)
                              intro.o (SCL_InitLineParamTb)
c:/saturn/sbl6/segalib/lib/sega_scl.a(scl_func.o)
                              c:/saturn/sbl6/segalib/lib/sega_scl.a(scl_fu05.o) (SclLengthLsTbl)
c:/saturn/sbl6/segalib/lib/sega_scl.a(scl_fu01.o)
                              scroll.o (SCL_SetDisplayMode)
c:/saturn/sbl6/segalib/lib/sega_scl.a(scl_fu04.o)
                              scroll.o (SCL_SetCycleTable)
c:/saturn/sbl6/segalib/lib/sega_scl.a(scl_pr03.o)
                              scroll.o (SCL_AllocColRam)
c:/saturn/sbl6/segalib/lib/sega_scl.a(scl_back.o)
                              scroll.o (SCL_SetBack)
c:/saturn/sbl6/segalib/lib/sega_scl.a(scl_fu03.o)
                              scroll.o (SCL_InitConfigTb)
c:/saturn/sbl6/segalib/lib/sega_scl.a(scl_fu02.o)
                              scroll.o (SCL_InitVramConfigTb)
c:/saturn/sbl6/segalib/lib/sega_scl.a(scl_pr01.o)
                              main.o (SCL_SetSpriteMode)
c:/saturn/sbl6/segalib/lib/sega_scl.a(scl_pr05.o)
                              c:/saturn/sbl6/segalib/lib/sega_scl.a(scl_pr02.o) (SCL_GetColRamOffset)
c:/saturn/sbl6/segalib/lib/sega_scl.a(scl_ro00.o)
                              c:/saturn/sbl6/segalib/lib/sega_scl.a(scl_func.o) (SCL_Rotate)
c:/saturn/sbl6/segalib/lib/sega_scl.a(scl_pr06.o)
                              c:/saturn/sbl6/segalib/lib/sega_scl.a(scl_pr03.o) (SCL_SetColRamOffset)
c:/saturn/sbl6/segalib/lib/sega_mth.a(mth_fixd.o)
                              ball.o (MTH_Mul)
c:/saturn/sbl6/segalib/lib/sega_mth.a(mth_tri.o)
                              ball.o (MTH_Sin)
c:/saturn/sbl6/segalib/lib/sega_mth.a(mth_rand.o)
                              main.o (MTH_InitialRand)
c:/saturn/sbl6/segalib/lib/sega_cdc.a(cdc_cmn.o)
                              main.o (CDC_GetPeriStat)
c:/saturn/sbl6/segalib/lib/sega_cdc.a(cdc_sub.o)
                              c:/saturn/sbl6/segalib/lib/sega_cdc.a(cdc_cmn.o) (CDSUB_UpdStatus)
c:/saturn/sbl6/segalib/lib/sega_cdc.a(cdc_reg.o)
                              c:/saturn/sbl6/segalib/lib/sega_cdc.a(cdc_cmn.o) (CDREG_ClrHirqReq)
c:/saturn/sbl6/segalib/lib/sega_per.a(per_prt.o)
                              smpclib/per_x2.o (PER_LInit)
c:/saturn/sbl6/segalib/lib/sega_sat.a(DMA_CPU1.o)
                              game.o (DMA_CpuMemCopy1)
c:/saturn/sbl6/segalib/lib/sega_sat.a(DMA_CPU2.o)
                              intro.o (DMA_CpuMemCopy2)
c:/saturn/sbl6/segalib/lib/sega_sat.a(DMA_SCU1.o)
                              c:/saturn/sbl6/segalib/lib/sega_spr.a(spr_2c.o) (DMA_ScuMemCopy)
c:/saturn/sbl6/segalib/lib/sega_sat.a(DMA_CPU0.o)
                              c:/saturn/sbl6/segalib/lib/sega_sat.a(DMA_CPU1.o) (DMA_CpuSetComPrm)
c:/saturn/sbl6/segalib/lib/sega_sat.a(DMA_CPU5.o)
                              c:/saturn/sbl6/segalib/lib/sega_sat.a(DMA_CPU1.o) (dma_cpu_cnt)
c:/saturn/sbl6/segalib/lib/sega_sat.a(DMA_SCU0.o)
                              c:/saturn/sbl6/segalib/lib/sega_sat.a(DMA_SCU1.o) (DMA_ScuSetPrm)
c:/saturn/sbl6/segalib/lib/sega_sat.a(csh_main.o)
                              c:/saturn/sbl6/segalib/lib/sega_sat.a(DMA_SCU1.o) (CSH_Purge)
c:/saturn/SH_COFF/sh-coff/bin/../lib/gcc/sh-coff/3.4-GNUSH_v0501\libgcc.a(_si_to_df.o)
                              game.o (__floatsidf)
c:/saturn/SH_COFF/sh-coff/bin/../lib/gcc/sh-coff/3.4-GNUSH_v0501\libgcc.a(_mul_df.o)
                              game.o (__muldf3)
c:/saturn/SH_COFF/sh-coff/bin/../lib/gcc/sh-coff/3.4-GNUSH_v0501\libgcc.a(_df_to_si.o)
                              game.o (__fixdfsi)
c:/saturn/SH_COFF/sh-coff/bin/../lib/gcc/sh-coff/3.4-GNUSH_v0501\libgcc.a(_ashiftrt.o)
                              c:/saturn/sbl6/segalib/lib/sega_scl.a(scl_ro00.o) (__ashiftrt_r4_6)
c:/saturn/SH_COFF/sh-coff/bin/../lib/gcc/sh-coff/3.4-GNUSH_v0501\libgcc.a(_udivsi3.o)
                              menu.o (__udivsi3)
c:/saturn/SH_COFF/sh-coff/bin/../lib/gcc/sh-coff/3.4-GNUSH_v0501\libgcc.a(_sdivsi3.o)
                              pcmsys.o (__sdivsi3)
c:/saturn/SH_COFF/sh-coff/bin/../lib/gcc/sh-coff/3.4-GNUSH_v0501\libgcc.a(_ashiftrt_n.o)
                              pcmsys.o (__ashrsi3)
c:/saturn/SH_COFF/sh-coff/bin/../lib/gcc/sh-coff/3.4-GNUSH_v0501\libgcc.a(_ashiftlt.o)
                              scroll.o (__ashlsi3)
c:/saturn/SH_COFF/sh-coff/bin/../lib/gcc/sh-coff/3.4-GNUSH_v0501\libgcc.a(_movstr.o)
                              scroll.o (__movstr)
c:/saturn/SH_COFF/sh-coff/bin/../lib/gcc/sh-coff/3.4-GNUSH_v0501\libgcc.a(__main.o)
                              main.o (__main)
c:/saturn/SH_COFF/sh-coff/bin/../lib/gcc/sh-coff/3.4-GNUSH_v0501\libgcc.a(_pack_df.o)
                              c:/saturn/SH_COFF/sh-coff/bin/../lib/gcc/sh-coff/3.4-GNUSH_v0501\libgcc.a(_si_to_df.o) (__pack_d)
c:/saturn/SH_COFF/sh-coff/bin/../lib/gcc/sh-coff/3.4-GNUSH_v0501\libgcc.a(_unpack_df.o)
                              c:/saturn/SH_COFF/sh-coff/bin/../lib/gcc/sh-coff/3.4-GNUSH_v0501\libgcc.a(_mul_df.o) (__unpack_d)
c:/saturn/SH_COFF/sh-coff/bin/../lib/gcc/sh-coff/3.4-GNUSH_v0501\libgcc.a(_thenan_df.o)
                              c:/saturn/SH_COFF/sh-coff/bin/../lib/gcc/sh-coff/3.4-GNUSH_v0501\libgcc.a(_mul_df.o) (__thenan_df)
c:/saturn/SH_COFF/sh-coff/bin/../lib/gcc/sh-coff/3.4-GNUSH_v0501\libgcc.a(_muldi3.o)
                              c:/saturn/SH_COFF/sh-coff/bin/../lib/gcc/sh-coff/3.4-GNUSH_v0501\libgcc.a(_mul_df.o) (__muldi3)
c:/saturn/SH_COFF/sh-coff/bin/../lib/gcc/sh-coff/3.4-GNUSH_v0501\libgcc.a(_lshrdi3.o)
                              c:/saturn/SH_COFF/sh-coff/bin/../lib/gcc/sh-coff/3.4-GNUSH_v0501\libgcc.a(_df_to_si.o) (__lshrdi3)
c:/saturn/SH_COFF/sh-coff/bin/../lib/gcc/sh-coff/3.4-GNUSH_v0501\libgcc.a(_ashldi3.o)
                              c:/saturn/SH_COFF/sh-coff/bin/../lib/gcc/sh-coff/3.4-GNUSH_v0501\libgcc.a(_pack_df.o) (__ashldi3)
c:/saturn/SH_COFF/sh-coff/bin/../lib/gcc/sh-coff/3.4-GNUSH_v0501\libgcc.a(_mulsi3.o)
                              c:/saturn/SH_COFF/sh-coff/bin/../lib/gcc/sh-coff/3.4-GNUSH_v0501\libgcc.a(_muldi3.o) (__mulsi3)
c:/saturn/SH_COFF/sh-coff/bin/../lib/gcc/sh-coff/3.4-GNUSH_v0501\libgcc.a(_lshiftrt.o)
                              c:/saturn/SH_COFF/sh-coff/bin/../lib/gcc/sh-coff/3.4-GNUSH_v0501\libgcc.a(_lshrdi3.o) (__lshrsi3)
c:/saturn/SH_COFF/sh-coff/bin/../lib/gcc/sh-coff/3.4-GNUSH_v0501/../../../../sh-coff/lib\libc.a(memset.o)
                              scroll.o (memset)
c:/saturn/SH_COFF/sh-coff/bin/../lib/gcc/sh-coff/3.4-GNUSH_v0501/../../../../sh-coff/lib\libc.a(memcpy.o)
                              c:/saturn/sbl6/segalib/lib/sega_sat.a(DMA_SCU1.o) (memcpy)
c:/saturn/SH_COFF/sh-coff/bin/../lib/gcc/sh-coff/3.4-GNUSH_v0501/../../../../sh-coff/lib\libc.a(atexit.o)
                              c:/saturn/SH_COFF/sh-coff/bin/../lib/gcc/sh-coff/3.4-GNUSH_v0501\libgcc.a(__main.o) (atexit)
c:/saturn/SH_COFF/sh-coff/bin/../lib/gcc/sh-coff/3.4-GNUSH_v0501/../../../../sh-coff/lib\libc.a(impure.o)
                              c:/saturn/SH_COFF/sh-coff/bin/../lib/gcc/sh-coff/3.4-GNUSH_v0501/../../../../sh-coff/lib\libc.a(atexit.o) (_impure_ptr)
c:/saturn/SH_COFF/sh-coff/bin/../lib/gcc/sh-coff/3.4-GNUSH_v0501/../../../../sh-coff/lib\libc.a(malloc.o)
                              c:/saturn/SH_COFF/sh-coff/bin/../lib/gcc/sh-coff/3.4-GNUSH_v0501/../../../../sh-coff/lib\libc.a(atexit.o) (malloc)
c:/saturn/SH_COFF/sh-coff/bin/../lib/gcc/sh-coff/3.4-GNUSH_v0501/../../../../sh-coff/lib\libc.a(mallocr.o)
                              c:/saturn/SH_COFF/sh-coff/bin/../lib/gcc/sh-coff/3.4-GNUSH_v0501/../../../../sh-coff/lib\libc.a(malloc.o) (_malloc_r)
c:/saturn/SH_COFF/sh-coff/bin/../lib/gcc/sh-coff/3.4-GNUSH_v0501/../../../../sh-coff/lib\libc.a(freer.o)
                              c:/saturn/SH_COFF/sh-coff/bin/../lib/gcc/sh-coff/3.4-GNUSH_v0501/../../../../sh-coff/lib\libc.a(malloc.o) (_free_r)
c:/saturn/SH_COFF/sh-coff/bin/../lib/gcc/sh-coff/3.4-GNUSH_v0501/../../../../sh-coff/lib\libc.a(mlock.o)
                              c:/saturn/SH_COFF/sh-coff/bin/../lib/gcc/sh-coff/3.4-GNUSH_v0501/../../../../sh-coff/lib\libc.a(mallocr.o) (__malloc_lock)
c:/saturn/SH_COFF/sh-coff/bin/../lib/gcc/sh-coff/3.4-GNUSH_v0501/../../../../sh-coff/lib\libc.a(sbrkr.o)
                              c:/saturn/SH_COFF/sh-coff/bin/../lib/gcc/sh-coff/3.4-GNUSH_v0501/../../../../sh-coff/lib\libc.a(mallocr.o) (_sbrk_r)
c:/saturn/SH_COFF/sh-coff/bin/../lib/gcc/sh-coff/3.4-GNUSH_v0501/../../../../sh-coff/lib\libc.a(syscalls.o)
                              c:/saturn/SH_COFF/sh-coff/bin/../lib/gcc/sh-coff/3.4-GNUSH_v0501/../../../../sh-coff/lib\libc.a(sbrkr.o) (_sbrk)
c:/saturn/SH_COFF/sh-coff/bin/../lib/gcc/sh-coff/3.4-GNUSH_v0501/../../../../sh-coff/lib\libc.a(trap.o)
                              c:/saturn/SH_COFF/sh-coff/bin/../lib/gcc/sh-coff/3.4-GNUSH_v0501/../../../../sh-coff/lib\libc.a(syscalls.o) (__trap34)
c:/saturn/SH_COFF/sh-coff/bin/../lib/gcc/sh-coff/3.4-GNUSH_v0501/../../../../sh-coff/lib\libc.a(abort.o)
                              c:/saturn/SH_COFF/sh-coff/bin/../lib/gcc/sh-coff/3.4-GNUSH_v0501/../../../../sh-coff/lib\libc.a(syscalls.o) (abort)
c:/saturn/SH_COFF/sh-coff/bin/../lib/gcc/sh-coff/3.4-GNUSH_v0501/../../../../sh-coff/lib\libc.a(signal.o)
                              c:/saturn/SH_COFF/sh-coff/bin/../lib/gcc/sh-coff/3.4-GNUSH_v0501/../../../../sh-coff/lib\libc.a(abort.o) (raise)
c:/saturn/SH_COFF/sh-coff/bin/../lib/gcc/sh-coff/3.4-GNUSH_v0501/../../../../sh-coff/lib\libc.a(signalr.o)
                              c:/saturn/SH_COFF/sh-coff/bin/../lib/gcc/sh-coff/3.4-GNUSH_v0501/../../../../sh-coff/lib\libc.a(signal.o) (_kill_r)

Allocating common symbols
Common symbol       size              file

SclRbgKtbAddr       0x8               c:/saturn/sbl6/segalib/lib/sega_scl.a(scl_func.o)
sprites             0x1180            sprite.o
ship_sprite         0x4               game.o
SpMstCmd            0x4               c:/saturn/sbl6/segalib/lib/sega_spr.a(spr_2c.o)
SclRb               0x1               c:/saturn/sbl6/segalib/lib/sega_scl.a(scl_func.o)
Scl_flag            0x2               c:/saturn/sbl6/segalib/lib/sega_scl.a(scl_func.o)
per_get_time_flg    0x1               c:/saturn/sbl6/segalib/lib/sega_per.a(per_prt.o)
explosion_charno    0x4               game.o
SpScreenY           0x4               c:/saturn/sbl6/segalib/lib/sega_spr.a(spr_1c.o)
SclK_TableBuff      0xcd0             c:/saturn/sbl6/segalib/lib/sega_scl.a(scl_func.o)
SclAutoEndBlue2     0x2               c:/saturn/sbl6/segalib/lib/sega_scl.a(scl_pri.o)
SpFbcrMode          0x2               c:/saturn/sbl6/segalib/lib/sega_spr.a(spr_1c.o)
capsule_charno      0x4               game.o
Sp2OpenFlag         0x4               c:/saturn/sbl6/segalib/lib/sega_spr.a(spr_2c.o)
block_charno        0x4               game.o
SclColOffset        0x10              c:/saturn/sbl6/segalib/lib/sega_scl.a(scl_pri.o)
SclAddrCsTbl        0x8               c:/saturn/sbl6/segalib/lib/sega_scl.a(scl_func.o)
SclPriBuffDirty     0x1               c:/saturn/sbl6/segalib/lib/sega_scl.a(scl_pri.o)
sprite_buf          0x2000            sprite.o
SclAutoEndRed       0x2               c:/saturn/sbl6/segalib/lib/sega_scl.a(scl_pri.o)
SclAutoSurface      0x4               c:/saturn/sbl6/segalib/lib/sega_scl.a(scl_pri.o)
__interrupt_vector  0x400             c:/saturn/sbl6/segalib/lib/sega_int.a(int.o)
per_hot_res         0x1               c:/saturn/sbl6/segalib/lib/sega_per.a(per_prt.o)
dirname             0x960             cd.o
SclCsx              0x8               c:/saturn/sbl6/segalib/lib/sega_scl.a(scl_ro00.o)
Scl_s_reg           0x28              c:/saturn/sbl6/segalib/lib/sega_scl.a(scl_func.o)
SclAutoGreen        0x2               c:/saturn/sbl6/segalib/lib/sega_scl.a(scl_pri.o)
SclAutoEndGreen     0x2               c:/saturn/sbl6/segalib/lib/sega_scl.a(scl_pri.o)
SclAutoCount        0x4               c:/saturn/sbl6/segalib/lib/sega_scl.a(scl_pri.o)
SpGourTblMax        0x4               c:/saturn/sbl6/segalib/lib/sega_spr.a(spr_2c.o)
SclColRamAlloc256   0x20              c:/saturn/sbl6/segalib/lib/sega_scl.a(scl_pri.o)
SclRotateXy         0x8               c:/saturn/sbl6/segalib/lib/sega_scl.a(scl_func.o)
SpDrawPrtyBlk       0x4               c:/saturn/sbl6/segalib/lib/sega_spr.a(spr_2c.o)
SclAutoCurRate      0x1               c:/saturn/sbl6/segalib/lib/sega_scl.a(scl_pri.o)
PadAnalogR1         0x1               vblank.o
PadAnalogL1         0x1               vblank.o
SpLCoordX           0x4               c:/saturn/sbl6/segalib/lib/sega_spr.a(spr_2c.o)
dma_cpu_cnt         0x4               c:/saturn/sbl6/segalib/lib/sega_sat.a(DMA_CPU5.o)
SpMstDrawPrtyBlk    0x4               c:/saturn/sbl6/segalib/lib/sega_spr.a(spr_2c.o)
SclAutoPlusFlag     0x1               c:/saturn/sbl6/segalib/lib/sega_scl.a(scl_pri.o)
per_set_sys_flg     0x1               c:/saturn/sbl6/segalib/lib/sega_per.a(per_prt.o)
Scl_d_reg           0x48              c:/saturn/sbl6/segalib/lib/sega_scl.a(scl_func.o)
ball_charno         0x4               game.o
SclRotateDisp       0x8               c:/saturn/sbl6/segalib/lib/sega_scl.a(scl_func.o)
SpGourTbl           0x4               c:/saturn/sbl6/segalib/lib/sega_spr.a(spr_2c.o)
SclSpColMix         0x8               c:/saturn/sbl6/segalib/lib/sega_scl.a(scl_pri.o)
SpDil               0x2               c:/saturn/sbl6/segalib/lib/sega_spr.a(spr_1c.o)
SpLookupTblR        0x2               c:/saturn/sbl6/segalib/lib/sega_spr.a(spr_2c.o)
scfg                0x230             scroll.o
ball_sprites        0x1e0             ball.o
SclAutoMax          0x4               c:/saturn/sbl6/segalib/lib/sega_scl.a(scl_pri.o)
SpCmdTbl            0x4               c:/saturn/sbl6/segalib/lib/sega_spr.a(spr_2c.o)
dma_cpu_dis_adr     0x4               c:/saturn/sbl6/segalib/lib/sega_sat.a(DMA_CPU5.o)
SclRotateMoveZ      0x8               c:/saturn/sbl6/segalib/lib/sega_scl.a(scl_func.o)
SclLineColRamOffset
                    0x4               c:/saturn/sbl6/segalib/lib/sega_scl.a(scl_pri.o)
SclRotXySw          0x4               c:/saturn/sbl6/segalib/lib/sega_scl.a(scl_func.o)
per_get_time_adr    0x4               c:/saturn/sbl6/segalib/lib/sega_per.a(per_prt.o)
SclColRamAlloc2048  0x4               c:/saturn/sbl6/segalib/lib/sega_scl.a(scl_pri.o)
SclBgPriNum         0x6               c:/saturn/sbl6/segalib/lib/sega_scl.a(scl_pri.o)
SpCharMax           0x4               c:/saturn/sbl6/segalib/lib/sega_spr.a(spr_2c.o)
ball_count          0x4               ball.o
SpDrawPrtyProcFlag  0x4               c:/saturn/sbl6/segalib/lib/sega_spr.a(spr_2c.o)
SclAutoEndBlue      0x2               c:/saturn/sbl6/segalib/lib/sega_scl.a(scl_pri.o)
SpCmdNo             0x4               c:/saturn/sbl6/segalib/lib/sega_spr.a(spr_2c.o)
SclAutoEndGreen2    0x2               c:/saturn/sbl6/segalib/lib/sega_scl.a(scl_pri.o)
Scl_r_reg           0x10              c:/saturn/sbl6/segalib/lib/sega_scl.a(scl_func.o)
SclRPMD             0x2               c:/saturn/sbl6/segalib/lib/sega_scl.a(scl_func.o)
SpDrawPrtyBlkMax    0x4               c:/saturn/sbl6/segalib/lib/sega_spr.a(spr_2c.o)
SpDie               0x2               c:/saturn/sbl6/segalib/lib/sega_spr.a(spr_1c.o)
SclAutoVeFlag       0x1               c:/saturn/sbl6/segalib/lib/sega_scl.a(scl_pri.o)
SclBgColMix         0x8               c:/saturn/sbl6/segalib/lib/sega_scl.a(scl_pri.o)
text                0x14a0            print.o
SpSlvCmdPos         0x4               c:/saturn/sbl6/segalib/lib/sega_spr.a(spr_2c.o)
per_get_sys_data    0xc               c:/saturn/sbl6/segalib/lib/sega_per.a(per_prt.o)
SclRbgKtbOffset     0x8               c:/saturn/sbl6/segalib/lib/sega_scl.a(scl_func.o)
off_config          0x8c              main.o
SclAutoIndex        0x4               c:/saturn/sbl6/segalib/lib/sega_scl.a(scl_pri.o)
SclAutoEndRate      0x1               c:/saturn/sbl6/segalib/lib/sega_scl.a(scl_pri.o)
SpSlvDrawPrtyBlk    0x4               c:/saturn/sbl6/segalib/lib/sega_spr.a(spr_2c.o)
_SclRotregBuff      0xd0              c:/saturn/sbl6/segalib/lib/sega_scl.a(scl_func.o)
SclAutoBlue         0x2               c:/saturn/sbl6/segalib/lib/sega_scl.a(scl_pri.o)
lib_work            0xd08             cd.o
SpTvMode            0x2               c:/saturn/sbl6/segalib/lib/sega_spr.a(spr_1c.o)
SpScreenX           0x4               c:/saturn/sbl6/segalib/lib/sega_spr.a(spr_1c.o)
SclRa               0x1               c:/saturn/sbl6/segalib/lib/sega_scl.a(scl_func.o)
SclRotateZ          0x8               c:/saturn/sbl6/segalib/lib/sega_scl.a(scl_func.o)
SpCharTbl           0x4               c:/saturn/sbl6/segalib/lib/sega_spr.a(spr_2c.o)
SclAddrLsTbl        0x8               c:/saturn/sbl6/segalib/lib/sega_scl.a(scl_func.o)
SclK_TableNum       0x8               c:/saturn/sbl6/segalib/lib/sega_scl.a(scl_func.o)
SclAutoRed          0x2               c:/saturn/sbl6/segalib/lib/sega_scl.a(scl_pri.o)
SpCmdTblR           0x2               c:/saturn/sbl6/segalib/lib/sega_spr.a(spr_2c.o)
SclAutoInterval     0x4               c:/saturn/sbl6/segalib/lib/sega_scl.a(scl_pri.o)
PadAnalogY1         0x1               vblank.o
SclOtherPri         0x10              c:/saturn/sbl6/segalib/lib/sega_scl.a(scl_pri.o)
per_time_out_flg    0x1               c:/saturn/sbl6/segalib/lib/sega_per.a(per_prt.o)
SclRotateTableAddress
                    0x4               c:/saturn/sbl6/segalib/lib/sega_scl.a(scl_func.o)
SpMstCmdPos         0x4               c:/saturn/sbl6/segalib/lib/sega_spr.a(spr_2c.o)
SpSlvCmd            0x4               c:/saturn/sbl6/segalib/lib/sega_spr.a(spr_2c.o)
SclAutoRGB          0x600             c:/saturn/sbl6/segalib/lib/sega_scl.a(scl_pri.o)
errno               0x4               c:/saturn/SH_COFF/sh-coff/bin/../lib/gcc/sh-coff/3.4-GNUSH_v0501/../../../../sh-coff/lib\libc.a(syscalls.o)
SclK_TableFlag      0x4               c:/saturn/sbl6/segalib/lib/sega_scl.a(scl_func.o)
SclAutoEndRed2      0x2               c:/saturn/sbl6/segalib/lib/sega_scl.a(scl_pri.o)
SclCsy              0x8               c:/saturn/sbl6/segalib/lib/sega_scl.a(scl_ro00.o)
SclSpPriNum         0x8               c:/saturn/sbl6/segalib/lib/sega_scl.a(scl_pri.o)
Scl_w_reg           0x20              c:/saturn/sbl6/segalib/lib/sega_scl.a(scl_func.o)
directory_table     0xc               cd.o
capsules            0xa0              capsule.o
PadAnalogX1         0x1               vblank.o
PadID1              0x4               vblank.o
SpLCoordY           0x4               c:/saturn/sbl6/segalib/lib/sega_spr.a(spr_2c.o)
Scl_n_reg           0x40              c:/saturn/sbl6/segalib/lib/sega_scl.a(scl_func.o)

Memory Configuration

Name             Origin             Length             Attributes
*default*        0x00000000         0xffffffff

Linker script and memory map

LOAD c:/saturn/sbl6/segasmp/lib/strt1_g.o
LOAD c:/saturn/sbl6/segasmp/lib/strt2_g.o
LOAD vblank.o
LOAD smpclib/per_x1.o
LOAD smpclib/per_x2.o
LOAD smpclib/per_x3.o
LOAD spritecode/explosion.o
LOAD ball.o
LOAD capsule.o
LOAD cd.o
LOAD crc.o
LOAD devcart.o
LOAD game.o
LOAD graphics.o
LOAD intro.o
LOAD level.o
LOAD logo.o
LOAD menu.o
LOAD pcmsys.o
LOAD print.o
LOAD scroll.o
LOAD sound.o
LOAD sprite.o
LOAD main.o
LOAD c:/saturn/sbl6/segalib/lib/sega_int.a
LOAD c:/saturn/sbl6/segalib/lib/sega_spr.a
LOAD c:/saturn/sbl6/segalib/lib/sega_scl.a
LOAD c:/saturn/sbl6/segalib/lib/sega_mth.a
LOAD c:/saturn/sbl6/segalib/lib/sega_cdc.a
LOAD c:/saturn/sbl6/segalib/lib/sega_adp.a
LOAD c:/saturn/sbl6/segalib/lib/sega_per.a
LOAD c:/saturn/sbl6/segalib/lib/sega_sat.a
LOAD c:/saturn/SH_COFF/sh-coff/bin/../lib/gcc/sh-coff/3.4-GNUSH_v0501\libgcc.a
LOAD c:/saturn/SH_COFF/sh-coff/bin/../lib/gcc/sh-coff/3.4-GNUSH_v0501/../../../../sh-coff/lib\libc.a
LOAD c:/saturn/SH_COFF/sh-coff/bin/../lib/gcc/sh-coff/3.4-GNUSH_v0501\libgcc.a

.text           0x06010000    0x11440
 *(.text)
 .text          0x06010000       0x30 c:/saturn/sbl6/segasmp/lib/strt1_g.o
                0x06010024                _D_END
                0x06010020                _D_BGN
                0x0601002c                _B_END
                0x06010028                _B_BGN
                0x06010000                START
 .text          0x06010030       0x60 c:/saturn/sbl6/segasmp/lib/strt2_g.o
                0x06010050                _INITSCT
                0x06010030                _INIT
 .text          0x06010090      0x1d0 vblank.o
                0x06010090                SetVblank
                0x06010110                UsrVblankOut
                0x060100f0                UsrVblankIn
 .text          0x06010260      0x240 smpclib/per_x1.o
                0x06010440                PER_GetAnalogXYZ
                0x06010280                PER_GetTriggerHandler
                0x060103d0                PER_GetEdge
                0x06010390                PER_GetTrigger
                0x060103e0                PER_GetPressEdge
                0x06010410                PER_GetReleaseEdge
                0x06010260                PER_SetTriggerHandler
 .text          0x060104a0      0x180 smpclib/per_x2.o
                0x06010580                PER_GetDeviceA
                0x060104a0                PER_OpenPort
                0x060104d0                PER_GetPort
                0x060105c0                PER_GetDeviceR
 .text          0x06010620       0x20 smpclib/per_x3.o
                0x06010620                PER_DisguiseTrigger
 .text          0x06010640       0xb0 spritecode/explosion.o
                0x060106a0                explosion_move
                0x06010640                explosion_make
 .text          0x060106f0      0x3c0 ball.o
                0x06010810                ball_move
                0x06010780                ball_remove
                0x06010710                ball_add
                0x060107d0                ball_bounce
                0x060106f0                ball_init
 .text          0x06010ab0      0x200 capsule.o
                0x06010b60                capsule_run
                0x06010ad0                capsule_add
                0x06010b10                capsule_remove
                0x06010ab0                capsule_init
 .text          0x06010cb0       0x30 cd.o
                0x06010cd0                cd_load_nosize
                0x06010cb0                cd_init
                0x06010cc0                cd_load
 .text          0x06010ce0      0x140 crc.o
                0x06010de0                crc_update
 .text          0x06010e20      0x200 devcart.o
                0x06010fe0                devcart_reset
                0x06010e90                devcart_loadfile
                0x06010f90                devcart_printstr
 .text          0x06011020      0xeb0 game.o
                0x06011180                game_incpowerup
                0x060111b0                game_run
                0x06011120                game_loss
 .text          0x06011ed0      0xe10 intro.o
                0x06011ed0                intro_run
 .text          0x06012ce0      0x610 level.o
                0x06012ee0                level_disp
                0x06012ce0                level_load
 .text          0x060132f0      0x370 logo.o
                0x06013350                logo_run
                0x060132f0                logo_loadframe
 .text          0x06013660      0xbd0 menu.o
                0x06013990                menu_run
                0x06013840                sqrt32
 .text          0x06014230      0x8c0 pcmsys.o
                0x060148f0                load_8bit_pcm
                0x06014650                smpc_issue_command
                0x060146f0                load_drv
                0x06014a80                pcm_parameter_change
                0x06014630                smpc_wait_till_ready
                0x06014670                load_driver_binary
                0x06014a40                pcm_play
                0x06014ab0                pcm_cease
                0x06014740                calculate_bytes_per_blank
                0x06014790                load_16bit_pcm
 .text          0x06014af0      0x230 print.o
                0x06014c80                print_display
                0x06014bd0                print_num
                0x06014af0                print_load
                0x06014ba0                print_init
                0x06014c20                print_string
 .text          0x06014d20      0x550 scroll.o
                0x06014d20                scroll_lores
                0x06015130                scroll_move
                0x06015180                scroll_clearmaps
                0x060150e0                scroll_set
                0x060151d0                scroll_charsize
                0x06015220                scroll_mapsize
                0x06014d80                scroll_hires
                0x06014ec0                scroll_init
                0x06014de0                scroll_scale
 .text          0x06015270       0xb0 sound.o
                0x06015300                sound_play
                0x060152a0                sound_init
                0x060152f0                sound_cdda
 .text          0x06015320      0x600 sprite.o
                0x06015350                sprite_init
                0x06015750                sprite_make
                0x06015890                sprite_next
                0x06015410                sprite_erase
                0x060158f0                sprite_delete
                0x060157a0                sprite_draw_all
                0x06015320                sprite_deleteall
                0x06015470                sprite_startdraw
                0x060154f0                sprite_draw
 .text          0x06015920      0x220 main.o
                0x06015920                main
 .text          0x06015b40       0x40 c:/saturn/sbl6/segalib/lib/sega_int.a(int.o)
                0x06015b6c                INT_GetScuFunc
                0x06015b40                INT_SetScuFunc
 .text          0x06015b80      0x624 c:/saturn/sbl6/segalib/lib/sega_int.a(int_trmp.o)
                0x06015ce8                __interrupt_handler60
                0x06015e98                __interrupt_handler132
                0x0601604e                __interrupt_handler205
                0x06015eb6                __interrupt_handler137
                0x06015de4                __interrupt_handler102
                0x06015c22                __interrupt_handler27
                0x06016024                __interrupt_handler198
                0x06015f16                __interrupt_handler153
                0x06015bfe                __interrupt_handler21
                0x06015d0c                __interrupt_handler66
                0x06015dfc                __interrupt_handler106
                0x06015f46                __interrupt_handler161
                0x06015d90                __interrupt_handler88
                0x06015f5e                __interrupt_handler165
                0x06015e6e                __interrupt_handler125
                0x06015ba4                __interrupt_handler6
                0x06015c40                __interrupt_handler32
                0x06015ffa                __interrupt_handler191
                0x06016114                __interrupt_handler238
                0x0601612c                __interrupt_handler242
                0x06015f34                __interrupt_handler158
                0x06015d9c                __interrupt_handler90
                0x06015f58                __interrupt_handler164
                0x06015c7c                __interrupt_handler42
                0x06015fbe                __interrupt_handler181
                0x060160c6                __interrupt_handler225
                0x0601616e                __interrupt_handler253
                0x06015f82                __interrupt_handler171
                0x06015d3c                __interrupt_handler74
                0x06015b92                __interrupt_handler3
                0x06015cd6                __interrupt_handler57
                0x06015bd4                __interrupt_handler14
                0x0601606c                __interrupt_handler210
                0x0601609c                __interrupt_handler218
                0x06016060                __interrupt_handler208
                0x06015c64                __interrupt_handler38
                0x06015b80                __interrupt_handler0
                0x06015df0                __interrupt_handler104
                0x06015f2e                __interrupt_handler157
                0x0601607e                __interrupt_handler213
                0x06015f70                __interrupt_handler168
                0x06015d7e                __interrupt_handler85
                0x06015e1a                __interrupt_handler111
                0x06015e2c                __interrupt_handler114
                0x06015c9a                __interrupt_handler47
                0x060160f0                __interrupt_handler232
                0x060160ba                __interrupt_handler223
                0x0601610e                __interrupt_handler237
                0x06015cfa                __interrupt_handler63
                0x06015c88                __interrupt_handler44
                0x06015f9a                __interrupt_handler175
                0x06015fc4                __interrupt_handler182
                0x06015fdc                __interrupt_handler186
                0x06015eda                __interrupt_handler143
                0x06015e02                __interrupt_handler107
                0x06015e68                __interrupt_handler124
                0x06015f88                __interrupt_handler172
                0x0601613e                __interrupt_handler245
                0x06015dba                __interrupt_handler95
                0x06015e92                __interrupt_handler131
                0x06015ea4                __interrupt_handler134
                0x06015ec2                __interrupt_handler139
                0x06015d30                __interrupt_handler72
                0x060160ea                __interrupt_handler231
                0x06015f40                __interrupt_handler160
                0x06015e86                __interrupt_handler129
                0x06015bf8                __interrupt_handler20
                0x06015d06                __interrupt_handler65
                0x06015cd0                __interrupt_handler56
                0x06015bce                __interrupt_handler13
                0x06016066                __interrupt_handler209
                0x06015e20                __interrupt_handler112
                0x06015bf2                __interrupt_handler19
                0x06015dae                __interrupt_handler93
                0x06016018                __interrupt_handler196
                0x06015f0a                __interrupt_handler151
                0x06015f6a                __interrupt_handler167
                0x06016180                __trampoline
                0x06015be6                __interrupt_handler17
                0x060160d8                __interrupt_handler228
                0x0601617a                __interrupt_handler255
                0x06016138                __interrupt_handler244
                0x06015dd2                __interrupt_handler99
                0x06015fca                __interrupt_handler183
                0x06015ec8                __interrupt_handler140
                0x06015fee                __interrupt_handler189
                0x06015eec                __interrupt_handler146
                0x060160b4                __interrupt_handler222
                0x06015f28                __interrupt_handler156
                0x06015e5c                __interrupt_handler122
                0x06016150                __interrupt_handler248
                0x06015ca0                __interrupt_handler48
                0x06015d1e                __interrupt_handler69
                0x06015c10                __interrupt_handler24
                0x06015d96                __interrupt_handler89
                0x0601608a                __interrupt_handler215
                0x06016174                __interrupt_handler254
                0x06015d8a                __interrupt_handler87
                0x06015cee                __interrupt_handler61
                0x06016012                __interrupt_handler195
                0x06015f04                __interrupt_handler150
                0x06015c76                __interrupt_handler41
                0x06015e14                __interrupt_handler110
                0x06015e7a                __interrupt_handler127
                0x06015e08                __interrupt_handler108
                0x06015e26                __interrupt_handler113
                0x06015e38                __interrupt_handler116
                0x06015e56                __interrupt_handler121
                0x06015d4e                __interrupt_handler77
                0x06015c6a                __interrupt_handler39
                0x06015c82                __interrupt_handler43
                0x06016156                __interrupt_handler249
                0x06015f94                __interrupt_handler174
                0x06015eb0                __interrupt_handler136
                0x06015fe8                __interrupt_handler188
                0x06015ee6                __interrupt_handler145
                0x06015bb6                __interrupt_handler9
                0x06015d5a                __interrupt_handler79
                0x060160d2                __interrupt_handler227
                0x06015c4c                __interrupt_handler34
                0x06015e8c                __interrupt_handler130
                0x0601614a                __interrupt_handler247
                0x06015d42                __interrupt_handler75
                0x06015f8e                __interrupt_handler173
                0x06015cbe                __interrupt_handler53
                0x06015efe                __interrupt_handler149
                0x06016162                __interrupt_handler251
                0x060160f6                __interrupt_handler233
                0x06015bbc                __interrupt_handler10
                0x06016048                __interrupt_handler204
                0x06015d6c                __interrupt_handler82
                0x06015d72                __interrupt_handler83
                0x06015c16                __interrupt_handler25
                0x06016132                __interrupt_handler243
                0x06015f4c                __interrupt_handler162
                0x06015c94                __interrupt_handler46
                0x06015fac                __interrupt_handler178
                0x06015d60                __interrupt_handler80
                0x06015cf4                __interrupt_handler62
                0x06015b8c                __interrupt_handler2
                0x06015c2e                __interrupt_handler29
                0x06015d24                __interrupt_handler70
                0x06015e0e                __interrupt_handler109
                0x06015ef8                __interrupt_handler148
                0x06015db4                __interrupt_handler94
                0x060160c0                __interrupt_handler224
                0x06015dea                __interrupt_handler103
                0x06015c58                __interrupt_handler36
                0x06015e74                __interrupt_handler126
                0x06016144                __interrupt_handler246
                0x06015cca                __interrupt_handler55
                0x06015bc8                __interrupt_handler12
                0x06015cb8                __interrupt_handler52
                0x06015fe2                __interrupt_handler187
                0x06015ee0                __interrupt_handler144
                0x06015e3e                __interrupt_handler117
                0x06015bec                __interrupt_handler18
                0x0601601e                __interrupt_handler197
                0x06015f10                __interrupt_handler152
                0x06015e44                __interrupt_handler118
                0x06015f7c                __interrupt_handler170
                0x06016036                __interrupt_handler201
                0x06015dc6                __interrupt_handler97
                0x06015f52                __interrupt_handler163
                0x06015fb8                __interrupt_handler180
                0x06016000                __interrupt_handler192
                0x06016120                __interrupt_handler240
                0x06015e62                __interrupt_handler123
                0x06016084                __interrupt_handler214
                0x06015c3a                __interrupt_handler31
                0x06015c28                __interrupt_handler28
                0x06015d12                __interrupt_handler67
                0x06015d18                __interrupt_handler68
                0x06015c04                __interrupt_handler22
                0x06015c0a                __interrupt_handler23
                0x06015fa0                __interrupt_handler176
                0x06015baa                __interrupt_handler7
                0x060160ae                __interrupt_handler221
                0x06016096                __interrupt_handler217
                0x060160de                __interrupt_handler229
                0x06015ca6                __interrupt_handler49
                0x06015b98                __interrupt_handler4
                0x06015c70                __interrupt_handler40
                0x06015e32                __interrupt_handler115
                0x06016102                __interrupt_handler235
                0x06015da2                __interrupt_handler91
                0x06016054                __interrupt_handler206
                0x06015fa6                __interrupt_handler177
                0x06015ef2                __interrupt_handler147
                0x06015c5e                __interrupt_handler37
                0x0601615c                __interrupt_handler250
                0x06015b86                __interrupt_handler1
                0x060160a2                __interrupt_handler219
                0x06015d48                __interrupt_handler76
                0x06015dd8                __interrupt_handler100
                0x06015cdc                __interrupt_handler58
                0x06015bda                __interrupt_handler15
                0x06016078                __interrupt_handler212
                0x06016126                __interrupt_handler241
                0x0601603c                __interrupt_handler202
                0x06016006                __interrupt_handler193
                0x06015d54                __interrupt_handler78
                0x06015cac                __interrupt_handler50
                0x06015c46                __interrupt_handler33
                0x06015f64                __interrupt_handler166
                0x06015ebc                __interrupt_handler138
                0x06015eaa                __interrupt_handler135
                0x06015c34                __interrupt_handler30
                0x06015fd0                __interrupt_handler184
                0x06015ece                __interrupt_handler141
                0x060160e4                __interrupt_handler230
                0x06016108                __interrupt_handler236
                0x06015e4a                __interrupt_handler119
                0x06015d84                __interrupt_handler86
                0x06015df6                __interrupt_handler105
                0x06015d66                __interrupt_handler81
                0x06015e50                __interrupt_handler120
                0x06015e80                __interrupt_handler128
                0x06015cc4                __interrupt_handler54
                0x06015bc2                __interrupt_handler11
                0x0601602a                __interrupt_handler199
                0x06015f1c                __interrupt_handler154
                0x06015c8e                __interrupt_handler45
                0x06016090                __interrupt_handler216
                0x06016042                __interrupt_handler203
                0x06015dde                __interrupt_handler101
                0x06015d78                __interrupt_handler84
                0x06015fd6                __interrupt_handler185
                0x06015ed4                __interrupt_handler142
                0x06015c1c                __interrupt_handler26
                0x06015d00                __interrupt_handler64
                0x06016030                __interrupt_handler200
                0x0601605a                __interrupt_handler207
                0x0601600c                __interrupt_handler194
                0x06015da8                __interrupt_handler92
                0x06015f22                __interrupt_handler155
                0x06016072                __interrupt_handler211
                0x06015e9e                __interrupt_handler133
                0x06015b9e                __interrupt_handler5
                0x06015d36                __interrupt_handler73
                0x06015be0                __interrupt_handler16
                0x0601611a                __interrupt_handler239
                0x060160fc                __interrupt_handler234
                0x06015c52                __interrupt_handler35
                0x06015ce2                __interrupt_handler59
                0x06015f76                __interrupt_handler169
                0x06015dcc                __interrupt_handler98
                0x06015d2a                __interrupt_handler71
                0x06015cb2                __interrupt_handler51
                0x06015f3a                __interrupt_handler159
                0x060160cc                __interrupt_handler226
                0x06015dc0                __interrupt_handler96
                0x06015ff4                __interrupt_handler190
                0x060160a8                __interrupt_handler220
                0x06015bb0                __interrupt_handler8
                0x06015fb2                __interrupt_handler179
                0x06016168                __interrupt_handler252
 *fill*         0x060161a4        0xc 00
 .text          0x060161b0     0x12a0 c:/saturn/sbl6/segalib/lib/sega_spr.a(spr_2c.o)
                0x06017410                SlaveFlushDrawPrtyBlock
                0x060161b0                SPR_2Initial
                0x060169f4                SPR_2SysClip
                0x06016994                SPR_2LocalCoord
                0x0601728c                SPR_2FlushDrawPrtyBlock
                0x06016f78                SPR_2DistSpr
                0x0601697c                SPR_2FlushDrawPrty
                0x0601709c                SPR_2Cmd
                0x06016678                SPR_2GourTblNoToVram
                0x060166d8                SPR_2GetAreaSizeInfo
                0x06016440                SPR_2SetGourTbl
                0x06016c2c                SPR_2Polygon
                0x060166b4                SPR_2CharNoToVram
                0x060163c0                SPR_2SetTvMode
                0x0601681c                SPR_2CloseCommand
                0x060163fc                SPR_2FrameEraseData
                0x060161d8                SPR_2Initial2
                0x06016e0c                SPR_2ScaleSpr
                0x06016a9c                SPR_2Line
                0x06016768                SPR_2OpenCommand
                0x060163dc                SPR_2FrameChgIntr
                0x06016ce8                SPR_2NormSpr
                0x06016470                SPR_2SetLookupTbl
                0x060164a4                SPR_2SetChar
                0x0601669c                SPR_2LookupTblNoToVram
                0x06016b70                SPR_2PolyLine
                0x06016610                SPR_2ClrAllChar
                0x060165c4                SPR_2ClrChar
                0x06016a40                SPR_2UserClip
 .text          0x06017450      0x1e6 c:/saturn/sbl6/segalib/lib/sega_spr.a(spr_slv.o)
                0x060175b4                SPR_WaitEndSlaveSH
                0x06017450                SPR_SMPC_SSHON
                0x06017590                SPR_RunSlaveSH
                0x06017454                SPR_InitSlaveSH
                0x0601751c                SPR_SlaveSHmain
                0x06017451                SPR_SMPC_SSHOFF
 *fill*         0x06017636        0xa 00
 .text          0x06017640      0x36a c:/saturn/sbl6/segalib/lib/sega_spr.a(spr_1c.o)
                0x060178f4                SPR_WaitDrawEnd
                0x0601790c                SPR_SetEosMode
                0x06017824                SPR_SetEraseData
                0x06017640                SPR_Initial
                0x06017718                SPR_SetTvMode
                0x060177b0                SPR_GetStatus
 *fill*         0x060179aa        0x6 00
 .text          0x060179b0      0x244 c:/saturn/sbl6/segalib/lib/sega_spr.a(spr_2a.o)
                0x060179c2                sprMemCpyW
                0x06017a20                flushDrawPrtyBlock
                0x060179b0                sprMemCpyL
                0x060179d4                SPR_2SetDrawPrty
 *fill*         0x06017bf4        0xc 00
 .text          0x06017c00      0x2fc c:/saturn/sbl6/segalib/lib/sega_scl.a(scl_vblv.o)
                0x06017cbc                SCL_DisplayFrame
                0x06017c00                SCL_SetFrameInterval
                0x06017cf0                SCL_VblInit
                0x06017d40                SCL_VblankStart
                0x06017d84                SCL_VblankEnd
 *fill*         0x06017efc        0x4 00
 .text          0x06017f00      0x1f4 c:/saturn/sbl6/segalib/lib/sega_scl.a(scl_pr12.o)
                0x06017f00                SCL_SetColOffset
 *fill*         0x060180f4        0xc 00
 .text          0x06018100      0x214 c:/saturn/sbl6/segalib/lib/sega_scl.a(scl_pr07.o)
                0x06018100                SCL_SetPriority
 *fill*         0x06018314        0xc 00
 .text          0x06018320       0x9c c:/saturn/sbl6/segalib/lib/sega_scl.a(scl_pr02.o)
                0x06018320                SCL_SetColRam
 *fill*         0x060183bc        0x4 00
 .text          0x060183c0      0x180 c:/saturn/sbl6/segalib/lib/sega_scl.a(scl_pr11.o)
                0x060183c0                SCL_SetAutoColOffset
 .text          0x06018540     0x10a4 c:/saturn/sbl6/segalib/lib/sega_scl.a(scl_pri.o)
                0x060185d4                SCL_AbortAutoVe
                0x06019484                SCL_SetShadowBit
                0x06018a4c                SCL_AutoExec
                0x06018540                SCL_PriorityInit
                0x06018f60                SCL_IncColOffset
                0x060185e8                SCL_SetColMixRate
                0x060185b8                SCL_GetColRamMode
 *fill*         0x060195e4        0xc 00
 .text          0x060195f0       0x98 c:/saturn/sbl6/segalib/lib/sega_scl.a(scl_pr10.o)
                0x060195f0                SCL_SetAutoColMix
 *fill*         0x06019688        0x8 00
 .text          0x06019690      0x278 c:/saturn/sbl6/segalib/lib/sega_scl.a(scl_fu05.o)
                0x0601974c                SCL_SetLineParam
                0x06019698                SCL_InitLineParamTb
 *fill*         0x06019908        0x8 00
 .text          0x06019910      0xb9c c:/saturn/sbl6/segalib/lib/sega_scl.a(scl_func.o)
                0x0601a2ec                SCL_Vdp2_SGLInit
                0x0601a1fc                SCL_PriIntProc
                0x0601a174                SCL_Memcpyw
                0x0601a48c                SCL_SglOff
                0x0601a46c                SCL_SglOn
                0x0601a0e0                SCL_ScrollShow
                0x06019b88                SCL_Close
                0x06019e80                SCL_Scale
                0x06019910                SCL_Vdp2Init
                0x06019cf4                SCL_Move
                0x06019fbc                SCL_CopyReg
                0x06019b64                SCL_Open
                0x06019994                SCL_ParametersInit
                0x06019ba4                SCL_MoveTo
                0x0601a19c                SCL_SetColRamMode
 *fill*         0x0601a4ac        0x4 00
 .text          0x0601a4b0      0x1ec c:/saturn/sbl6/segalib/lib/sega_scl.a(scl_fu01.o)
                0x0601a4b0                SCL_SetDisplayMode
 *fill*         0x0601a69c        0x4 00
 .text          0x0601a6a0       0x28 c:/saturn/sbl6/segalib/lib/sega_scl.a(scl_fu04.o)
                0x0601a6a0                SCL_SetCycleTable
 *fill*         0x0601a6c8        0x8 00
 .text          0x0601a6d0      0x138 c:/saturn/sbl6/segalib/lib/sega_scl.a(scl_pr03.o)
                0x0601a6d0                SCL_FreeColRam
                0x0601a708                SCL_AllocColRam
 *fill*         0x0601a808        0x8 00
 .text          0x0601a810       0x84 c:/saturn/sbl6/segalib/lib/sega_scl.a(scl_back.o)
                0x0601a810                SCL_SetBack
 *fill*         0x0601a894        0xc 00
 .text          0x0601a8a0      0x94c c:/saturn/sbl6/segalib/lib/sega_scl.a(scl_fu03.o)
                0x0601a8fc                SCL_SetConfig
                0x0601a8a0                SCL_InitConfigTb
 *fill*         0x0601b1ec        0x4 00
 .text          0x0601b1f0      0x4f4 c:/saturn/sbl6/segalib/lib/sega_scl.a(scl_fu02.o)
                0x0601b228                SCL_SetVramConfig
                0x0601b1f0                SCL_InitVramConfigTb
 *fill*         0x0601b6e4        0xc 00
 .text          0x0601b6f0       0x58 c:/saturn/sbl6/segalib/lib/sega_scl.a(scl_pr01.o)
                0x0601b6f0                SCL_SetSpriteMode
 *fill*         0x0601b748        0x8 00
 .text          0x0601b750       0xac c:/saturn/sbl6/segalib/lib/sega_scl.a(scl_pr05.o)
                0x0601b750                SCL_GetColRamOffset
 *fill*         0x0601b7fc        0x4 00
 .text          0x0601b800     0x1394 c:/saturn/sbl6/segalib/lib/sega_scl.a(scl_ro00.o)
                0x0601c9ec                SCL_RotateZD
                0x0601bcb4                SCL_Rotate
                0x0601b988                SCL_InitRotateTable
 *fill*         0x0601cb94        0xc 00
 .text          0x0601cba0      0x1b4 c:/saturn/sbl6/segalib/lib/sega_scl.a(scl_pr06.o)
                0x0601cba0                SCL_SetColRamOffset
 *fill*         0x0601cd54        0xc 00
 .text          0x0601cd60       0xa4 c:/saturn/sbl6/segalib/lib/sega_mth.a(mth_fixd.o)
                0x0601cdb0                MTH_FixedToInt
                0x0601cda0                MTH_IntToFixed
                0x0601cd60                MTH_Mul
                0x0601cdc0                MTH_Product
                0x0601cd80                MTH_Div
 *fill*         0x0601ce04        0xc 00
 .text          0x0601ce10      0x600 c:/saturn/sbl6/segalib/lib/sega_mth.a(mth_tri.o)
                0x0601ceac                fcos
                0x0601ceb2                fsin
                0x0601ce5c                MTH_Cos
                0x0601ce10                MTH_Sin
                0x0601d050                MTH_Atan
 .text          0x0601d410       0x30 c:/saturn/sbl6/segalib/lib/sega_mth.a(mth_rand.o)
                0x0601d420                MTH_GetRand
                0x0601d410                MTH_InitialRand
 .text          0x0601d440      0x3a0 c:/saturn/sbl6/segalib/lib/sega_cdc.a(cdc_cmn.o)
                0x0601d5e4                CDC_TgetToc
                0x0601d788                CDC_DataEnd
                0x0601d4a8                CDC_GetPeriStat
                0x0601d71c                CDC_DataReady
                0x0601d6f4                CDC_CdOpen
                0x0601d670                CDC_CdInit
                0x0601d634                CDC_GetSes
                0x0601d490                CDC_GetLastStat
                0x0601d440                CDC_GetCurStat
                0x0601d57c                CDC_GetHwInfo
 .text          0x0601d7e0      0x152 c:/saturn/sbl6/segalib/lib/sega_cdc.a(cdc_sub.o)
                0x0601d888                CDSUB_GetCdstat
                0x0601d7f8                CDSUB_UpdCdstat
                0x0601d8c8                CDSUB_RspToCdstat
                0x0601d910                CDSUB_SoftTimer
                0x0601d7e0                CDSUB_UpdStatus
                0x0601d818                CDSUB_CdCmd
 *fill*         0x0601d932        0xe 00
 .text          0x0601d940      0x2dc c:/saturn/sbl6/segalib/lib/sega_cdc.a(cdc_reg.o)
                0x0601d994                CDREG_ClrHirqReq
                0x0601d964                CDC_ClrHirqReq
                0x0601da14                CDREG_TgetData
                0x0601da04                CDC_GetMpegPtr
                0x0601d9e0                CDC_GetHirqMsk
                0x0601d940                CDC_GetDataPtr
                0x0601d950                CDC_GetHirqReq
                0x0601db70                CDREG_WaitHirq
                0x0601d9f4                CDC_SetHirqMsk
                0x0601da70                CDREG_CmdRsp
                0x0601d9a4                CDREG_InitHirqReq
                0x0601d9cc                CDREG_SetHirqFlag
                0x0601dbe0                CDREG_ReadRsp
 *fill*         0x0601dc1c        0x4 00
 .text          0x0601dc20      0xf50 c:/saturn/sbl6/segalib/lib/sega_per.a(per_prt.o)
                0x0601e040                PER_IntFunc
                0x0601de38                PER_LGetPer
                0x0601dc20                PER_LInit
 .text          0x0601eb70       0x90 c:/saturn/sbl6/segalib/lib/sega_sat.a(DMA_CPU1.o)
                0x0601eb70                DMA_CpuMemCopy1
 .text          0x0601ec00       0x94 c:/saturn/sbl6/segalib/lib/sega_sat.a(DMA_CPU2.o)
                0x0601ec00                DMA_CpuMemCopy2
 *fill*         0x0601ec94        0xc 00
 .text          0x0601eca0      0x1f4 c:/saturn/sbl6/segalib/lib/sega_sat.a(DMA_SCU1.o)
                0x0601edfc                DMA_ScuResult
                0x0601eca0                DMA_ScuInit
                0x0601ecf0                DMA_ScuMemCopy
 *fill*         0x0601ee94        0xc 00
 .text          0x0601eea0      0x1b6 c:/saturn/sbl6/segalib/lib/sega_sat.a(DMA_CPU0.o)
                0x0601eee8                DMA_CpuSetPrm
                0x0601efec                DMA_CpuStart
                0x0601f044                DMA_CpuGetStatus
                0x0601f018                DMA_CpuAllStop
                0x0601f02c                DMA_CpuGetComStatus
                0x0601eea0                DMA_CpuSetComPrm
                0x0601f000                DMA_CpuStop
 *fill*         0x0601f056        0xa 00
 .text          0x0601f060       0x50 c:/saturn/sbl6/segalib/lib/sega_sat.a(DMA_CPU5.o)
                0x0601f060                DMA_CpuResult
 .text          0x0601f0b0      0x308 c:/saturn/sbl6/segalib/lib/sega_sat.a(DMA_SCU0.o)
                0x0601f134                DMA_ScuStart
                0x0601f268                DMA_ScuIntFunc0
                0x0601f2d8                DMA_ScuIntFunc1
                0x0601f348                DMA_ScuIntFunc2
                0x0601f228                DMA_ScuGetStatus
                0x0601f0b0                DMA_ScuSetPrm
 *fill*         0x0601f3b8        0x8 00
 .text          0x0601f3c0       0xe8 c:/saturn/sbl6/segalib/lib/sega_sat.a(csh_main.o)
                0x0601f3c0                CSH_Init
                0x0601f428                CSH_AllClr
                0x0601f474                CSH_Purge
 *fill*         0x0601f4a8        0x8 00
 .text          0x0601f4b0       0xb0 c:/saturn/SH_COFF/sh-coff/bin/../lib/gcc/sh-coff/3.4-GNUSH_v0501\libgcc.a(_si_to_df.o)
                0x0601f4b0                __floatsidf
 .text          0x0601f560      0x2e0 c:/saturn/SH_COFF/sh-coff/bin/../lib/gcc/sh-coff/3.4-GNUSH_v0501\libgcc.a(_mul_df.o)
                0x0601f570                __muldf3
 .text          0x0601f840       0x80 c:/saturn/SH_COFF/sh-coff/bin/../lib/gcc/sh-coff/3.4-GNUSH_v0501\libgcc.a(_df_to_si.o)
                0x0601f840                __fixdfsi
 .text          0x0601f8c0       0x60 c:/saturn/SH_COFF/sh-coff/bin/../lib/gcc/sh-coff/3.4-GNUSH_v0501\libgcc.a(_ashiftrt.o)
                0x0601f8cc                __ashiftrt_r4_27
                0x0601f900                __ashiftrt_r4_6
                0x0601f8f0                __ashiftrt_r4_14
                0x0601f8e2                __ashiftrt_r4_19
                0x0601f8fa                __ashiftrt_r4_9
                0x0601f90e                __ashiftrt_r4_0
                0x0601f8c0                __ashiftrt_r4_31
                0x0601f8ce                __ashiftrt_r4_26
                0x0601f8dc                __ashiftrt_r4_22
                0x0601f8e8                __ashiftrt_r4_16
                0x0601f8f4                __ashiftrt_r4_12
                0x0601f8c8                __ashiftrt_r4_29
                0x0601f8e6                __ashiftrt_r4_17
                0x0601f8c6                __ashiftrt_r4_30
                0x0601f902                __ashiftrt_r4_5
                0x0601f8fc                __ashiftrt_r4_8
                0x0601f8c0                __ashiftrt_r4_32
                0x0601f8d0                __ashiftrt_r4_25
                0x0601f908                __ashiftrt_r4_2
                0x0601f8d2                __ashiftrt_r4_24
                0x0601f8ee                __ashiftrt_r4_15
                0x0601f8f8                __ashiftrt_r4_10
                0x0601f90a                __ashiftrt_r4_1
                0x0601f8ca                __ashiftrt_r4_28
                0x0601f8e0                __ashiftrt_r4_20
                0x0601f8fe                __ashiftrt_r4_7
                0x0601f8f2                __ashiftrt_r4_13
                0x0601f8f6                __ashiftrt_r4_11
                0x0601f904                __ashiftrt_r4_4
                0x0601f8da                __ashiftrt_r4_23
                0x0601f8e4                __ashiftrt_r4_18
                0x0601f8de                __ashiftrt_r4_21
                0x0601f906                __ashiftrt_r4_3
 .text          0x0601f920       0x70 c:/saturn/SH_COFF/sh-coff/bin/../lib/gcc/sh-coff/3.4-GNUSH_v0501\libgcc.a(_udivsi3.o)
                0x0601f942                __udivsi3
 .text          0x0601f990       0xa0 c:/saturn/SH_COFF/sh-coff/bin/../lib/gcc/sh-coff/3.4-GNUSH_v0501\libgcc.a(_sdivsi3.o)
                0x0601f990                __sdivsi3
 .text          0x0601fa30       0x90 c:/saturn/SH_COFF/sh-coff/bin/../lib/gcc/sh-coff/3.4-GNUSH_v0501\libgcc.a(_ashiftrt_n.o)
                0x0601fa30                __ashrsi3
 .text          0x0601fac0       0x90 c:/saturn/SH_COFF/sh-coff/bin/../lib/gcc/sh-coff/3.4-GNUSH_v0501\libgcc.a(_ashiftlt.o)
                0x0601fac0                __ashlsi3
 .text          0x0601fb50       0xb0 c:/saturn/SH_COFF/sh-coff/bin/../lib/gcc/sh-coff/3.4-GNUSH_v0501\libgcc.a(_movstr.o)
                0x0601fb90                __movstrSI16
                0x0601fb64                __movstrSI60
                0x0601fb70                __movstrSI48
                0x0601fb6c                __movstrSI52
                0x0601fb60                __movstrSI64
                0x0601fb74                __movstrSI44
                0x0601fb78                __movstrSI40
                0x0601fb7c                __movstrSI36
                0x0601fbb0                __movstr
                0x0601fb68                __movstrSI56
                0x0601fb84                __movstrSI28
                0x0601fb80                __movstrSI32
                0x0601fb94                __movstrSI12
                0x0601fb98                __movstrSI8
                0x0601fba0                __movstrSI0
                0x0601fb88                __movstrSI24
                0x0601fb8c                __movstrSI20
                0x0601fb9c                __movstrSI4
 .text          0x0601fc00       0xa0 c:/saturn/SH_COFF/sh-coff/bin/../lib/gcc/sh-coff/3.4-GNUSH_v0501\libgcc.a(__main.o)
                0x0601fc74                __main
                0x0601fc00                __do_global_dtors
                0x0601fc34                __do_global_ctors
 .text          0x0601fca0      0x220 c:/saturn/SH_COFF/sh-coff/bin/../lib/gcc/sh-coff/3.4-GNUSH_v0501\libgcc.a(_pack_df.o)
                0x0601fcb0                __pack_d
 .text          0x0601fec0      0x120 c:/saturn/SH_COFF/sh-coff/bin/../lib/gcc/sh-coff/3.4-GNUSH_v0501\libgcc.a(_unpack_df.o)
                0x0601fed0                __unpack_d
 .text          0x0601ffe0       0x20 c:/saturn/SH_COFF/sh-coff/bin/../lib/gcc/sh-coff/3.4-GNUSH_v0501\libgcc.a(_thenan_df.o)
                0x0601ffe0                __thenan_df
 .text          0x06020000       0xd0 c:/saturn/SH_COFF/sh-coff/bin/../lib/gcc/sh-coff/3.4-GNUSH_v0501\libgcc.a(_muldi3.o)
                0x06020000                __muldi3
 .text          0x060200d0       0x80 c:/saturn/SH_COFF/sh-coff/bin/../lib/gcc/sh-coff/3.4-GNUSH_v0501\libgcc.a(_lshrdi3.o)
                0x060200d0                __lshrdi3
 .text          0x06020150       0x80 c:/saturn/SH_COFF/sh-coff/bin/../lib/gcc/sh-coff/3.4-GNUSH_v0501\libgcc.a(_ashldi3.o)
                0x06020150                __ashldi3
 .text          0x060201d0       0x30 c:/saturn/SH_COFF/sh-coff/bin/../lib/gcc/sh-coff/3.4-GNUSH_v0501\libgcc.a(_mulsi3.o)
                0x060201d0                __mulsi3
 .text          0x06020200       0x90 c:/saturn/SH_COFF/sh-coff/bin/../lib/gcc/sh-coff/3.4-GNUSH_v0501\libgcc.a(_lshiftrt.o)
                0x06020200                __lshrsi3
 .text          0x06020290       0x40 c:/saturn/SH_COFF/sh-coff/bin/../lib/gcc/sh-coff/3.4-GNUSH_v0501/../../../../sh-coff/lib\libc.a(memset.o)
                0x06020290                memset
 .text          0x060202d0       0xa0 c:/saturn/SH_COFF/sh-coff/bin/../lib/gcc/sh-coff/3.4-GNUSH_v0501/../../../../sh-coff/lib\libc.a(memcpy.o)
                0x060202d0                memcpy
 .text          0x06020370       0x90 c:/saturn/SH_COFF/sh-coff/bin/../lib/gcc/sh-coff/3.4-GNUSH_v0501/../../../../sh-coff/lib\libc.a(atexit.o)
                0x06020370                atexit
 .text          0x06020400       0x10 c:/saturn/SH_COFF/sh-coff/bin/../lib/gcc/sh-coff/3.4-GNUSH_v0501/../../../../sh-coff/lib\libc.a(impure.o)
                0x06020400                _global_impure_ptr
 .text          0x06020410       0x40 c:/saturn/SH_COFF/sh-coff/bin/../lib/gcc/sh-coff/3.4-GNUSH_v0501/../../../../sh-coff/lib\libc.a(malloc.o)
                0x0602042c                free
                0x06020410                malloc
 .text          0x06020450      0x5b0 c:/saturn/SH_COFF/sh-coff/bin/../lib/gcc/sh-coff/3.4-GNUSH_v0501/../../../../sh-coff/lib\libc.a(mallocr.o)
                0x06020450                _malloc_r
 .text          0x06020a00      0x340 c:/saturn/SH_COFF/sh-coff/bin/../lib/gcc/sh-coff/3.4-GNUSH_v0501/../../../../sh-coff/lib\libc.a(freer.o)
                0x06020a00                _malloc_trim_r
                0x06020af4                _free_r
 .text          0x06020d40       0x20 c:/saturn/SH_COFF/sh-coff/bin/../lib/gcc/sh-coff/3.4-GNUSH_v0501/../../../../sh-coff/lib\libc.a(mlock.o)
                0x06020d40                __malloc_lock
                0x06020d4c                __malloc_unlock
 .text          0x06020d60       0x50 c:/saturn/SH_COFF/sh-coff/bin/../lib/gcc/sh-coff/3.4-GNUSH_v0501/../../../../sh-coff/lib\libc.a(sbrkr.o)
                0x06020d60                _sbrk_r
 .text          0x06020db0      0x380 c:/saturn/SH_COFF/sh-coff/bin/../lib/gcc/sh-coff/3.4-GNUSH_v0501/../../../../sh-coff/lib\libc.a(syscalls.o)
                0x06020f1c                _exit
                0x06020f50                _getpid
                0x06020fb8                _utime
                0x06020de8                _write
                0x06020db0                _read
                0x06020f04                _unlink
                0x06020ecc                _open
                0x06020f68                _stat
                0x06020f10                isatty
                0x06020fe8                _wait
                0x06020f34                _kill
                0x06020f84                _chmod
                0x06021018                _execv
                0x06020ffc                _execve
                0x060210f4                __setup_argv_and_call_main
                0x06021050                _gettimeofday
                0x06020e1c                _link
                0x06020f5c                _raise
                0x06020ee8                _creat
                0x06021030                _pipe
                0x06020f9c                _chown
                0x06020dcc                _lseek
                0x06020e04                _close
                0x06021044                _times
                0x06020eb8                _fstat
                0x06020fd4                _fork
                0x06020e44                _sbrk
 .text          0x06021130       0x20 c:/saturn/SH_COFF/sh-coff/bin/../lib/gcc/sh-coff/3.4-GNUSH_v0501/../../../../sh-coff/lib\libc.a(trap.o)
                0x06021130                __trap34
 .text          0x06021150       0x20 c:/saturn/SH_COFF/sh-coff/bin/../lib/gcc/sh-coff/3.4-GNUSH_v0501/../../../../sh-coff/lib\libc.a(abort.o)
                0x06021150                abort
 .text          0x06021170      0x270 c:/saturn/SH_COFF/sh-coff/bin/../lib/gcc/sh-coff/3.4-GNUSH_v0501/../../../../sh-coff/lib\libc.a(signal.o)
                0x06021230                _raise_r
                0x060213b8                __sigtramp
                0x06021364                raise
                0x060213a0                _init_signal
                0x060212f0                __sigtramp_r
                0x06021380                signal
                0x060211bc                _signal_r
                0x06021170                _init_signal_r
 .text          0x060213e0       0x60 c:/saturn/SH_COFF/sh-coff/bin/../lib/gcc/sh-coff/3.4-GNUSH_v0501/../../../../sh-coff/lib\libc.a(signalr.o)
                0x06021428                _getpid_r
                0x060213e0                _kill_r
 *(.strings)

.tors           0x06021440        0x0
                0x06021440                ___ctors = .
 *(.ctors)
                0x06021440                ___ctors_end = .
                0x06021440                ___dtors = .
 *(.dtors)
                0x06021440                ___dtors_end = .

.data           0x06021440     0x4620
                0x06021440                STARTOF_R = .
 *(.data)
 .data          0x06021440      0x400 smpclib/per_x1.o
 .data          0x06021840       0x90 game.o
                0x06021840                powerup_names
 .data          0x060218d0     0x31a0 graphics.o
                0x06022950                cyberblock_name
                0x06023e36                girl2_num
                0x060229a0                metalorange_name
                0x06021ac6                ship_size
                0x060229ae                metalorange_num
                0x06021c90                chipgame_pal
                0x06023a2a                girl3_num
                0x06021bfc                game_name
                0x060224b0                menufont_pal
                0x06021922                capsule_num
                0x060224fe                menufont_num
                0x06021a1c                beffect_size
                0x06024242                girl1_num
                0x06022960                metalorange_pal
                0x06024244                roarframes_pal
                0x06021c80                gamestar_name
                0x06021974                blocks2_size
                0x06021c2c                starnear_name
                0x06021bd4                gamefar_height
                0x06021ac8                ship_num
                0x06024654                roarbg_pal
                0x06021a18                beffect_height
                0x06024a54                roarbg_name
                0x06021a20                explosion_pal
                0x06021c40                gamestar_pal
                0x06021bf8                gamenear_width
                0x06021a60                explosion_name
                0x060219ca                blocks1_num
                0x0602191e                capsule_width
                0x0602191c                capsule_height
                0x06021b1e                starspr_num
                0x06024238                girl1_name
                0x060220a0                game_tiles_pal
                0x06021976                blocks2_num
                0x060229b0                title_pal
                0x060219b8                blocks1_name
                0x06021b6a                font_height
                0x06024644                roarframes_name
                0x06023a20                girl3_name
                0x06021bd6                gamefar_width
                0x06023e38                girl1_pal
                0x060224f0                menufont_name
                0x0602290e                chipframes_num
                0x06021b74                ball_pal
                0x06023620                girl3_pal
                0x0602209e                chipgame_num
                0x06021920                capsule_size
                0x06021b1c                starspr_size
                0x06021978                blocks1_pal
                0x06021be8                gamenear_name
                0x06021a70                explosion_width
                0x06023212                girl5_num
                0x06021bc4                ball_num
                0x06022dba                title_num
                0x06021b60                font_name
                0x06021a1a                beffect_width
                0x06021acc                starspr_pal
                0x06024a60                roarbg_num
                0x06021bc0                ball_width
                0x0602295e                cyberblock_num
                0x06022e08                girl5_pal
                0x06021ac2                ship_height
                0x060224ae                game_tiles_num
                0x06021bbe                ball_height
                0x06021bf6                gamenear_height
                0x06021b6c                font_width
                0x06022e06                stars_num
                0x06021bc2                ball_size
                0x06021ac4                ship_width
                0x06022db0                title_name
                0x06022900                chipframes_name
                0x06021c0c                starfar_name
                0x060219c4                blocks1_height
                0x06022dfc                stars_name
                0x06021c8e                gamestar_num
                0x06021be4                gamemid_height
                0x06021a78                ship_pal
                0x06021bb4                ball_name
                0x06021b70                font_num
                0x06021b20                font_pal
                0x06021c2a                starmid_width
                0x06021c3c                starnear_width
                0x06021bd8                gamemid_name
                0x06021972                blocks2_width
                0x060219c8                blocks1_size
                0x06021b1a                starspr_width
                0x06022500                chipframes_pal
                0x06021c06                game_height
                0x06021c18                starfar_height
                0x06021a74                explosion_num
                0x0602361e                girl4_num
                0x06021910                capsule_name
                0x06021be6                gamemid_width
                0x06021970                blocks2_height
                0x06021a0c                beffect_name
                0x060219c6                blocks1_width
                0x06021b6e                font_size
                0x06021964                blocks2_name
                0x06021b0c                starspr_name
                0x06024652                roarframes_num
                0x06022910                cyberblock_pal
                0x06021c3a                starnear_height
                0x06021c1c                starmid_name
                0x06021ab8                ship_name
                0x06023208                girl5_name
                0x06023214                girl4_pal
                0x06021924                blocks2_pal
                0x06021c28                starmid_height
                0x06022dbc                stars_pal
                0x06021bc8                gamefar_name
                0x060218d0                capsule_pal
                0x060224a0                game_tiles_name
                0x06021a1e                beffect_num
                0x06021b18                starspr_height
                0x060219cc                beffect_pal
                0x06023614                girl4_name
                0x06021c08                game_width
                0x06023a2c                girl2_pal
                0x06021c1a                starfar_width
                0x06021a72                explosion_size
                0x06021a6e                explosion_height
                0x06022090                chipgame_name
                0x06023e2c                girl2_name
 .data          0x06024a70      0x1a0 intro.o
 .data          0x06024c10       0x90 level.o
                0x06024c14                level_blocks
                0x06024c10                level_lengths
                0x06024c18                level0_blocks
 .data          0x06024ca0       0x40 logo.o
 .data          0x06024ce0       0x80 menu.o
                0x06024ce0                cutscene
 .data          0x06024d60       0x10 pcmsys.o
                0x06024d64                scsp_load
                0x06024d68                m68k_com
                0x06024d60                master_volume
 .data          0x06024d70       0x40 scroll.o
                0x06024d80                CycleTbLoRes
                0x06024da0                vram
                0x06024d90                char_offsets
                0x06024d70                CycleTbHiRes
 .data          0x06024db0       0x30 sprite.o
 .data          0x06024de0      0x400 c:/saturn/sbl6/segalib/lib/sega_int.a(int.o)
 .data          0x060251e0       0x1c c:/saturn/sbl6/segalib/lib/sega_spr.a(spr_slv.o)
                0x060251e8                SPR_SlaveParam
                0x060251f8                SPR_SMPC_SF
                0x060251f0                SPR_SMPC_COM
                0x060251ec                SPR_SlaveSHEntry
                0x060251e4                SPR_SlaveState
                0x060251e0                SPR_SlaveCommand
                0x060251f4                SPR_SMPC_RET
 *fill*         0x060251fc        0x4 00
 .data          0x06025200       0x34 c:/saturn/sbl6/segalib/lib/sega_spr.a(spr_1c.o)
                0x06025200                SpInitialFlag
 *fill*         0x06025234        0xc 00
 .data          0x06025240       0x1c c:/saturn/sbl6/segalib/lib/sega_scl.a(scl_vblv.o)
                0x06025248                VBInterval
                0x06025250                ReqDisplayFlag
                0x06025240                SpFrameChgMode
                0x0602524c                VBIntervalCounter
                0x06025244                SpFrameEraseMode
 *fill*         0x0602525c        0x4 00
 .data          0x06025260       0x18 c:/saturn/sbl6/segalib/lib/sega_scl.a(scl_pri.o)
                0x06025264                SclRealSpPriNum
                0x06025274                SclRealColOffset
                0x06025270                SclRealBgColMix
                0x0602526c                SclRealSpColMix
                0x06025268                SclRealBgPriNum
                0x06025260                SclRealOtherPri
 *fill*         0x06025278        0x8 00
 .data          0x06025280       0x36 c:/saturn/sbl6/segalib/lib/sega_scl.a(scl_func.o)
                0x06025290                SclRotregBuff
                0x0602528c                SclDisplayY
                0x06025294                SclRotateTableMode
                0x06025288                SclProcess
                0x06025284                SclCurSclNum
                0x06025280                SclLengthLsTbl
                0x0602528a                SclDisplayX
                0x06025282                SclLengthCsTbl
 *fill*         0x060252b6        0xa 00
 .data          0x060252c0        0x4 c:/saturn/sbl6/segalib/lib/sega_mth.a(mth_rand.o)
 *fill*         0x060252c4        0xc 00
 .data          0x060252d0      0x380 c:/saturn/SH_COFF/sh-coff/bin/../lib/gcc/sh-coff/3.4-GNUSH_v0501/../../../../sh-coff/lib\libc.a(impure.o)
                0x0602564c                _impure_ptr
 .data          0x06025650      0x410 c:/saturn/SH_COFF/sh-coff/bin/../lib/gcc/sh-coff/3.4-GNUSH_v0501/../../../../sh-coff/lib\libc.a(mallocr.o)
                0x06025658                __malloc_av_
                0x06025654                __malloc_trim_threshold
                0x06025650                __malloc_sbrk_base
                0x06025a60                SIZEOF_R = (. - STARTOF_R)
                0x06025a60                ENDOF_R = .

.bss            0x06025a60    0x103a4
                0x06025a60                STARTOF_B = .
 *(.bss)
 .bss           0x06025a60       0x10 vblank.o
                0x06025a64                PadData2E
                0x06025a6a                PadData1
                0x06025a66                PadData2
                0x06025a68                PadData1E
                0x06025a60                __port
 .bss           0x06025a70       0xe0 smpclib/per_x2.o
 .bss           0x06025b50       0x10 ball.o
 .bss           0x06025b60       0x10 capsule.o
 .bss           0x06025b70       0x30 game.o
                0x06025b70                powerup
 .bss           0x06025ba0     0x1970 intro.o
 .bss           0x06027510     0x13a0 level.o
 .bss           0x060288b0       0x10 logo.o
 .bss           0x060288c0       0x60 menu.o
 .bss           0x06028920       0x10 pcmsys.o
                0x06028920                numberPCMs
 .bss           0x06028930       0x10 scroll.o
                0x06028930                scroll_res
 .bss           0x06028940     0x3d00 sprite.o
                0x06028940                num_sprites
 .bss           0x0602c640       0x10 main.o
                0x0602c640                frame
 .bss           0x0602c650       0x6e c:/saturn/sbl6/segalib/lib/sega_spr.a(spr_2c.o)
 *fill*         0x0602c6be        0x2 00
 .bss           0x0602c6c0        0x4 c:/saturn/sbl6/segalib/lib/sega_scl.a(scl_vblv.o)
 *fill*         0x0602c6c4        0xc 00
 .bss           0x0602c6d0     0x1900 c:/saturn/sbl6/segalib/lib/sega_scl.a(scl_fu05.o)
 .bss           0x0602dfd0        0x4 c:/saturn/sbl6/segalib/lib/sega_scl.a(scl_func.o)
 *fill*         0x0602dfd4        0xc 00
 .bss           0x0602dfe0       0x48 c:/saturn/sbl6/segalib/lib/sega_scl.a(scl_ro00.o)
 *fill*         0x0602e028        0x8 00
 .bss           0x0602e030        0xc c:/saturn/sbl6/segalib/lib/sega_cdc.a(cdc_sub.o)
 *fill*         0x0602e03c        0x4 00
 .bss           0x0602e040        0x2 c:/saturn/sbl6/segalib/lib/sega_cdc.a(cdc_reg.o)
 *fill*         0x0602e042        0xe 00
 .bss           0x0602e050       0x9c c:/saturn/sbl6/segalib/lib/sega_per.a(per_prt.o)
 *fill*         0x0602e0ec        0x4 00
 .bss           0x0602e0f0        0xc c:/saturn/sbl6/segalib/lib/sega_sat.a(DMA_SCU1.o)
 *fill*         0x0602e0fc        0x4 00
 .bss           0x0602e100       0x20 c:/saturn/sbl6/segalib/lib/sega_sat.a(DMA_SCU0.o)
 .bss           0x0602e120       0x10 c:/saturn/SH_COFF/sh-coff/bin/../lib/gcc/sh-coff/3.4-GNUSH_v0501\libgcc.a(__main.o)
 .bss           0x0602e130       0x10 c:/saturn/SH_COFF/sh-coff/bin/../lib/gcc/sh-coff/3.4-GNUSH_v0501/../../../../sh-coff/lib\libc.a(atexit.o)
 .bss           0x0602e140       0x40 c:/saturn/SH_COFF/sh-coff/bin/../lib/gcc/sh-coff/3.4-GNUSH_v0501/../../../../sh-coff/lib\libc.a(mallocr.o)
                0x0602e170                __malloc_top_pad
                0x0602e140                __malloc_current_mallinfo
                0x0602e16c                __malloc_max_sbrked_mem
                0x0602e168                __malloc_max_total_mem
 .bss           0x0602e180       0x10 c:/saturn/SH_COFF/sh-coff/bin/../lib/gcc/sh-coff/3.4-GNUSH_v0501/../../../../sh-coff/lib\libc.a(syscalls.o)
 *(COMMON)
 COMMON         0x0602e190        0x8 vblank.o
                                  0x0 (size before relaxing)
                0x0602e190                PadAnalogR1
                0x0602e191                PadAnalogL1
                0x0602e192                PadAnalogY1
                0x0602e193                PadAnalogX1
                0x0602e194                PadID1
 *fill*         0x0602e198        0x8 00
 COMMON         0x0602e1a0      0x1e4 ball.o
                                  0x0 (size before relaxing)
                0x0602e1a0                ball_sprites
                0x0602e380                ball_count
 *fill*         0x0602e384        0xc 00
 COMMON         0x0602e390       0xa0 capsule.o
                                  0x0 (size before relaxing)
                0x0602e390                capsules
 COMMON         0x0602e430     0x1674 cd.o
                                  0x0 (size before relaxing)
                0x0602e430                dirname
                0x0602ed90                lib_work
                0x0602fa98                directory_table
 *fill*         0x0602faa4        0xc 00
 COMMON         0x0602fab0       0x14 game.o
                                  0x0 (size before relaxing)
                0x0602fab0                ship_sprite
                0x0602fab4                explosion_charno
                0x0602fab8                capsule_charno
                0x0602fabc                block_charno
                0x0602fac0                ball_charno
 *fill*         0x0602fac4        0xc 00
 COMMON         0x0602fad0     0x14a0 print.o
                                  0x0 (size before relaxing)
                0x0602fad0                text
 COMMON         0x06030f70      0x230 scroll.o
                                  0x0 (size before relaxing)
                0x06030f70                scfg
 COMMON         0x060311a0     0x3180 sprite.o
                                  0x0 (size before relaxing)
                0x060311a0                sprites
                0x06032320                sprite_buf
 COMMON         0x06034320       0x8c main.o
                                  0x0 (size before relaxing)
                0x06034320                off_config
 *fill*         0x060343ac        0x4 00
 COMMON         0x060343b0      0x400 c:/saturn/sbl6/segalib/lib/sega_int.a(int.o)
                                  0x0 (size before relaxing)
                0x060343b0                __interrupt_vector
 COMMON         0x060347b0       0x50 c:/saturn/sbl6/segalib/lib/sega_spr.a(spr_2c.o)
                                  0x0 (size before relaxing)
                0x060347b0                SpMstCmd
                0x060347b4                Sp2OpenFlag
                0x060347b8                SpGourTblMax
                0x060347bc                SpDrawPrtyBlk
                0x060347c0                SpLCoordX
                0x060347c4                SpMstDrawPrtyBlk
                0x060347c8                SpGourTbl
                0x060347cc                SpLookupTblR
                0x060347d0                SpCmdTbl
                0x060347d4                SpCharMax
                0x060347d8                SpDrawPrtyProcFlag
                0x060347dc                SpCmdNo
                0x060347e0                SpDrawPrtyBlkMax
                0x060347e4                SpSlvCmdPos
                0x060347e8                SpSlvDrawPrtyBlk
                0x060347ec                SpCharTbl
                0x060347f0                SpCmdTblR
                0x060347f4                SpMstCmdPos
                0x060347f8                SpSlvCmd
                0x060347fc                SpLCoordY
 COMMON         0x06034800       0x10 c:/saturn/sbl6/segalib/lib/sega_spr.a(spr_1c.o)
                                  0x0 (size before relaxing)
                0x06034800                SpScreenY
                0x06034804                SpFbcrMode
                0x06034806                SpDil
                0x06034808                SpDie
                0x0603480a                SpTvMode
                0x0603480c                SpScreenX
 COMMON         0x06034810      0x6b0 c:/saturn/sbl6/segalib/lib/sega_scl.a(scl_pri.o)
                                  0x0 (size before relaxing)
                0x06034810                SclAutoEndBlue2
                0x06034820                SclColOffset
                0x06034830                SclPriBuffDirty
                0x06034832                SclAutoEndRed
                0x06034834                SclAutoSurface
                0x06034838                SclAutoGreen
                0x0603483a                SclAutoEndGreen
                0x0603483c                SclAutoCount
                0x06034840                SclColRamAlloc256
                0x06034860                SclAutoCurRate
                0x06034861                SclAutoPlusFlag
                0x06034868                SclSpColMix
                0x06034870                SclAutoMax
                0x06034874                SclLineColRamOffset
                0x06034878                SclColRamAlloc2048
                0x0603487c                SclBgPriNum
                0x06034882                SclAutoEndBlue
                0x06034884                SclAutoEndGreen2
                0x06034886                SclAutoVeFlag
                0x06034888                SclBgColMix
                0x06034890                SclAutoIndex
                0x06034894                SclAutoEndRate
                0x06034896                SclAutoBlue
                0x06034898                SclAutoRed
                0x0603489c                SclAutoInterval
                0x060348a0                SclOtherPri
                0x060348b0                SclAutoRGB
                0x06034eb0                SclAutoEndRed2
                0x06034eb8                SclSpPriNum
 COMMON         0x06034ec0      0xf00 c:/saturn/sbl6/segalib/lib/sega_scl.a(scl_func.o)
                                  0x0 (size before relaxing)
                0x06034ec0                SclRbgKtbAddr
                0x06034ec8                SclRb
                0x06034eca                Scl_flag
                0x06034ed0                SclK_TableBuff
                0x06035ba0                SclAddrCsTbl
                0x06035bb0                Scl_s_reg
                0x06035bd8                SclRotateXy
                0x06035be0                Scl_d_reg
                0x06035c28                SclRotateDisp
                0x06035c30                SclRotateMoveZ
                0x06035c38                SclRotXySw
                0x06035c40                Scl_r_reg
                0x06035c50                SclRPMD
                0x06035c58                SclRbgKtbOffset
                0x06035c60                _SclRotregBuff
                0x06035d30                SclRa
                0x06035d38                SclRotateZ
                0x06035d40                SclAddrLsTbl
                0x06035d48                SclK_TableNum
                0x06035d50                SclRotateTableAddress
                0x06035d54                SclK_TableFlag
                0x06035d60                Scl_w_reg
                0x06035d80                Scl_n_reg
 COMMON         0x06035dc0       0x10 c:/saturn/sbl6/segalib/lib/sega_scl.a(scl_ro00.o)
                                  0x0 (size before relaxing)
                0x06035dc0                SclCsx
                0x06035dc8                SclCsy
 COMMON         0x06035dd0       0x15 c:/saturn/sbl6/segalib/lib/sega_per.a(per_prt.o)
                                  0x0 (size before relaxing)
                0x06035dd0                per_get_time_flg
                0x06035dd1                per_hot_res
                0x06035dd2                per_set_sys_flg
                0x06035dd4                per_get_time_adr
                0x06035dd8                per_get_sys_data
                0x06035de4                per_time_out_flg
 *fill*         0x06035de5        0xb 00
 COMMON         0x06035df0        0x8 c:/saturn/sbl6/segalib/lib/sega_sat.a(DMA_CPU5.o)
                                  0x0 (size before relaxing)
                0x06035df0                dma_cpu_cnt
                0x06035df4                dma_cpu_dis_adr
 *fill*         0x06035df8        0x8 00
 COMMON         0x06035e00        0x4 c:/saturn/SH_COFF/sh-coff/bin/../lib/gcc/sh-coff/3.4-GNUSH_v0501/../../../../sh-coff/lib\libc.a(syscalls.o)
                                  0x0 (size before relaxing)
                0x06035e00                errno
                0x06035e04                SIZEOF_B = (. - STARTOF_B)
                0x06035e04                ENDOF_B = .
                0x06035e04                _end = .
OUTPUT(main.cof coff-sh)

.comment        0x06035e10      0x560
 .comment       0x06035e10       0x20 c:/saturn/sbl6/segasmp/lib/strt2_g.o
 .comment       0x06035e30       0x20 vblank.o
 .comment       0x06035e50       0x20 smpclib/per_x1.o
 .comment       0x06035e70       0x20 smpclib/per_x2.o
 .comment       0x06035e90       0x20 spritecode/explosion.o
 .comment       0x06035eb0       0x20 ball.o
 .comment       0x06035ed0       0x20 capsule.o
 .comment       0x06035ef0       0x20 cd.o
 .comment       0x06035f10       0x20 crc.o
 .comment       0x06035f30       0x20 devcart.o
 .comment       0x06035f50       0x20 game.o
 .comment       0x06035f70       0x20 graphics.o
 .comment       0x06035f90       0x20 intro.o
 .comment       0x06035fb0       0x20 level.o
 .comment       0x06035fd0       0x20 logo.o
 .comment       0x06035ff0       0x20 menu.o
 .comment       0x06036010       0x20 pcmsys.o
 .comment       0x06036030       0x20 print.o
 .comment       0x06036050       0x20 scroll.o
 .comment       0x06036070       0x20 sound.o
 .comment       0x06036090       0x20 sprite.o
 .comment       0x060360b0       0x20 main.o
 .comment       0x060360d0       0x20 c:/saturn/SH_COFF/sh-coff/bin/../lib/gcc/sh-coff/3.4-GNUSH_v0501\libgcc.a(_si_to_df.o)
 .comment       0x060360f0       0x20 c:/saturn/SH_COFF/sh-coff/bin/../lib/gcc/sh-coff/3.4-GNUSH_v0501\libgcc.a(_mul_df.o)
 .comment       0x06036110       0x20 c:/saturn/SH_COFF/sh-coff/bin/../lib/gcc/sh-coff/3.4-GNUSH_v0501\libgcc.a(_df_to_si.o)
 .comment       0x06036130       0x20 c:/saturn/SH_COFF/sh-coff/bin/../lib/gcc/sh-coff/3.4-GNUSH_v0501\libgcc.a(__main.o)
 .comment       0x06036150       0x20 c:/saturn/SH_COFF/sh-coff/bin/../lib/gcc/sh-coff/3.4-GNUSH_v0501\libgcc.a(_pack_df.o)
 .comment       0x06036170       0x20 c:/saturn/SH_COFF/sh-coff/bin/../lib/gcc/sh-coff/3.4-GNUSH_v0501\libgcc.a(_unpack_df.o)
 .comment       0x06036190       0x20 c:/saturn/SH_COFF/sh-coff/bin/../lib/gcc/sh-coff/3.4-GNUSH_v0501\libgcc.a(_thenan_df.o)
 .comment       0x060361b0       0x20 c:/saturn/SH_COFF/sh-coff/bin/../lib/gcc/sh-coff/3.4-GNUSH_v0501\libgcc.a(_muldi3.o)
 .comment       0x060361d0       0x20 c:/saturn/SH_COFF/sh-coff/bin/../lib/gcc/sh-coff/3.4-GNUSH_v0501\libgcc.a(_lshrdi3.o)
 .comment       0x060361f0       0x20 c:/saturn/SH_COFF/sh-coff/bin/../lib/gcc/sh-coff/3.4-GNUSH_v0501\libgcc.a(_ashldi3.o)
 .comment       0x06036210       0x20 c:/saturn/SH_COFF/sh-coff/bin/../lib/gcc/sh-coff/3.4-GNUSH_v0501/../../../../sh-coff/lib\libc.a(atexit.o)
 .comment       0x06036230       0x20 c:/saturn/SH_COFF/sh-coff/bin/../lib/gcc/sh-coff/3.4-GNUSH_v0501/../../../../sh-coff/lib\libc.a(impure.o)
 .comment       0x06036250       0x20 c:/saturn/SH_COFF/sh-coff/bin/../lib/gcc/sh-coff/3.4-GNUSH_v0501/../../../../sh-coff/lib\libc.a(malloc.o)
 .comment       0x06036270       0x20 c:/saturn/SH_COFF/sh-coff/bin/../lib/gcc/sh-coff/3.4-GNUSH_v0501/../../../../sh-coff/lib\libc.a(mallocr.o)
 .comment       0x06036290       0x20 c:/saturn/SH_COFF/sh-coff/bin/../lib/gcc/sh-coff/3.4-GNUSH_v0501/../../../../sh-coff/lib\libc.a(freer.o)
 .comment       0x060362b0       0x20 c:/saturn/SH_COFF/sh-coff/bin/../lib/gcc/sh-coff/3.4-GNUSH_v0501/../../../../sh-coff/lib\libc.a(mlock.o)
 .comment       0x060362d0       0x20 c:/saturn/SH_COFF/sh-coff/bin/../lib/gcc/sh-coff/3.4-GNUSH_v0501/../../../../sh-coff/lib\libc.a(sbrkr.o)
 .comment       0x060362f0       0x20 c:/saturn/SH_COFF/sh-coff/bin/../lib/gcc/sh-coff/3.4-GNUSH_v0501/../../../../sh-coff/lib\libc.a(syscalls.o)
 .comment       0x06036310       0x20 c:/saturn/SH_COFF/sh-coff/bin/../lib/gcc/sh-coff/3.4-GNUSH_v0501/../../../../sh-coff/lib\libc.a(abort.o)
 .comment       0x06036330       0x20 c:/saturn/SH_COFF/sh-coff/bin/../lib/gcc/sh-coff/3.4-GNUSH_v0501/../../../../sh-coff/lib\libc.a(signal.o)
 .comment       0x06036350       0x20 c:/saturn/SH_COFF/sh-coff/bin/../lib/gcc/sh-coff/3.4-GNUSH_v0501/../../../../sh-coff/lib\libc.a(signalr.o)
